; Function Attrs: mustprogress uwtable
define noundef i64 @_ZN3nix22parseOlderThanTimeSpecESt17basic_string_viewIcSt11char_traitsIcEE(i64 %0, ptr %1) local_unnamed_addr #5 personality ptr @__gxx_personality_v0 {
  %3 = alloca %"class.std::basic_string_view", align 8
  %4 = alloca %"class.std::__cxx11::basic_string", align 8
  %5 = alloca %"class.std::allocator", align 1
  %6 = alloca %"class.std::__cxx11::basic_string", align 8
  %7 = alloca %"class.std::allocator", align 1
  store i64 %0, ptr %3, align 8
  %8 = getelementptr inbounds i8, ptr %3, i64 8
  store ptr %1, ptr %8, align 8
  %9 = icmp eq i64 %0, 0
  br i1 %9, label %14, label %10

10:                                               ; preds = %2
  %11 = getelementptr i8, ptr %1, i64 %0
  %12 = getelementptr i8, ptr %11, i64 -1
  %13 = load i8, ptr %12, align 1
  %.not = icmp eq i8 %13, 100
  br i1 %.not, label %21, label %14

14:                                               ; preds = %10, %2
  %15 = tail call ptr @__cxa_allocate_exception(i64 376) #25
  call void @_ZNSaIcEC1Ev(ptr noundef nonnull align 1 dereferenceable(1) %5) #25
  invoke void @_ZNSt7__cxx1112basic_stringIcSt11char_traitsIcESaIcEEC2IS3_EEPKcRKS3_(ptr noundef nonnull align 8 dereferenceable(32) %4, ptr noundef nonnull @.str.12, ptr noundef nonnull align 1 dereferenceable(1) %5)
          to label %16 unwind label %.thread

16:                                               ; preds = %14
  invoke void @_ZN3nix10UsageErrorCI2NS_9BaseErrorEIJSt17basic_string_viewIcSt11char_traitsIcEEEEERKNSt7__cxx1112basic_stringIcS3_SaIcEEEDpRKT_(ptr noundef nonnull align 8 dereferenceable(376) %15, ptr noundef nonnull align 8 dereferenceable(32) %4, ptr noundef nonnull align 8 dereferenceable(16) %3)
          to label %17 unwind label %19

17:                                               ; preds = %16
  invoke void @__cxa_throw(ptr nonnull %15, ptr nonnull @_ZTIN3nix10UsageErrorE, ptr nonnull @_ZN3nix10UsageErrorD2Ev) #26
          to label %39 unwind label %19

.thread:                                          ; preds = %14
  %18 = landingpad { ptr, i32 }
          cleanup
  br label %.sink.split.sink.split

19:                                               ; preds = %16, %17
  %.011 = phi i1 [ false, %17 ], [ true, %16 ]
  %20 = landingpad { ptr, i32 }
          cleanup
  call void @_ZNSt7__cxx1112basic_stringIcSt11char_traitsIcESaIcEED2Ev(ptr noundef nonnull align 8 dereferenceable(32) %4) #25
  call void @_ZNSaIcED1Ev(ptr noundef nonnull align 1 dereferenceable(1) %5) #25
  br i1 %.011, label %.sink.split, label %38

21:                                               ; preds = %10
  %22 = tail call i64 @time(ptr noundef null) #25
  %23 = add i64 %0, -1
  %.sroa.speculated.i = tail call i64 @llvm.umin.i64(i64 %0, i64 %23)
  %24 = tail call i64 @_ZN3nix10string2IntIiEESt8optionalIT_ESt17basic_string_viewIcSt11char_traitsIcEE(i64 %.sroa.speculated.i, ptr nonnull %1)
  %.sroa.0.0.extract.trunc = trunc i64 %24 to i32
  %25 = and i64 %24, 4294967296
  %26 = icmp eq i64 %25, 0
  %27 = icmp slt i32 %.sroa.0.0.extract.trunc, 1
  %or.cond = or i1 %26, %27
  br i1 %or.cond, label %28, label %35

28:                                               ; preds = %21
  %29 = tail call ptr @__cxa_allocate_exception(i64 376) #25
  call void @_ZNSaIcEC1Ev(ptr noundef nonnull align 1 dereferenceable(1) %7) #25
  invoke void @_ZNSt7__cxx1112basic_stringIcSt11char_traitsIcESaIcEEC2IS3_EEPKcRKS3_(ptr noundef nonnull align 8 dereferenceable(32) %6, ptr noundef nonnull @.str.13, ptr noundef nonnull align 1 dereferenceable(1) %7)
          to label %30 unwind label %.thread21

30:                                               ; preds = %28
  invoke void @_ZN3nix10UsageErrorCI2NS_9BaseErrorEIJSt17basic_string_viewIcSt11char_traitsIcEEEEERKNSt7__cxx1112basic_stringIcS3_SaIcEEEDpRKT_(ptr noundef nonnull align 8 dereferenceable(376) %29, ptr noundef nonnull align 8 dereferenceable(32) %6, ptr noundef nonnull align 8 dereferenceable(16) %3)
          to label %31 unwind label %33

31:                                               ; preds = %30
  invoke void @__cxa_throw(ptr nonnull %29, ptr nonnull @_ZTIN3nix10UsageErrorE, ptr nonnull @_ZN3nix10UsageErrorD2Ev) #26
          to label %39 unwind label %33

.thread21:                                        ; preds = %28
  %32 = landingpad { ptr, i32 }
          cleanup
  br label %.sink.split.sink.split

33:                                               ; preds = %30, %31
  %.0 = phi i1 [ false, %31 ], [ true, %30 ]
  %34 = landingpad { ptr, i32 }
          cleanup
  call void @_ZNSt7__cxx1112basic_stringIcSt11char_traitsIcESaIcEED2Ev(ptr noundef nonnull align 8 dereferenceable(32) %6) #25
  call void @_ZNSaIcED1Ev(ptr noundef nonnull align 1 dereferenceable(1) %7) #25
  br i1 %.0, label %.sink.split, label %38

35:                                               ; preds = %21
  %sext = mul i64 %24, 371085174374400
  %36 = ashr exact i64 %sext, 32
  %37 = sub nsw i64 %22, %36
  ret i64 %37

.sink.split.sink.split:                           ; preds = %.thread, %.thread21
  %.sink25 = phi ptr [ %7, %.thread21 ], [ %5, %.thread ]
  %.sink.ph = phi ptr [ %29, %.thread21 ], [ %15, %.thread ]
  %.pn14.pn.ph.ph = phi { ptr, i32 } [ %32, %.thread21 ], [ %18, %.thread ]
  call void @_ZNSaIcED1Ev(ptr noundef nonnull align 1 dereferenceable(1) %.sink25) #25
  br label %.sink.split

.sink.split:                                      ; preds = %.sink.split.sink.split, %33, %19
  %.sink = phi ptr [ %15, %19 ], [ %29, %33 ], [ %.sink.ph, %.sink.split.sink.split ]
  %.pn14.pn.ph = phi { ptr, i32 } [ %20, %19 ], [ %34, %33 ], [ %.pn14.pn.ph.ph, %.sink.split.sink.split ]
  call void @__cxa_free_exception(ptr %.sink) #25
  br label %38

38:                                               ; preds = %.sink.split, %33, %19
  %.pn14.pn = phi { ptr, i32 } [ %20, %19 ], [ %34, %33 ], [ %.pn14.pn.ph, %.sink.split ]
  resume { ptr, i32 } %.pn14.pn

39:                                               ; preds = %31, %17
  unreachable
}